ccopy_reg
_reconstructor
p0
(cnltk.classify.naivebayes
NaiveBayesClassifier
p1
c__builtin__
object
p2
Ntp3
Rp4
(dp5
S'_labels'
p6
(lp7
S'male'
p8
aS'female'
p9
asS'_feature_probdist'
p10
(dp11
(g8
S'suffix2'
p12
tp13
g0
(cnltk.probability
ELEProbDist
p14
g2
Ntp15
Rp16
(dp17
S'_gamma'
p18
F0.5
sS'_N'
p19
I2943
sS'_freqdist'
p20
cnltk.probability
FreqDist
p21
((dp22
Vgt
p23
I1
sVgs
p24
I3
sVgy
p25
I4
sVgg
p26
I1
sVge
p27
I11
sVch
p28
I23
sVgo
p29
I7
sVgi
p30
I2
sVgh
p31
I8
sVlf
p32
I8
sVld
p33
I37
sVle
p34
I42
sVtz
p35
I3
sVty
p36
I14
sVln
p37
I1
sVlo
p38
I22
sVtt
p39
I26
sVlm
p40
I4
sVtr
p41
I3
sVts
p42
I2
sVli
p43
I6
sVto
p44
I15
sVlt
p45
I7
sVJo
p46
I1
sVls
p47
I5
sVth
p48
I18
sVti
p49
I1
sVtf
p50
I1
sVte
p51
I12
sVly
p52
I27
sVdo
p53
I24
sVyl
p54
I6
sVdi
p55
I3
sVya
p56
I1
sVdd
p57
I7
sVde
p58
I10
sVye
p59
I3
sVyd
p60
I4
sVaf
p61
I2
sVdy
p62
I28
sVdt
p63
I1
sVyt
p64
I1
sVir
p65
I10
sVem
p66
I11
sVel
p67
I65
sVeo
p68
I9
sVen
p69
I66
sVei
p70
I3
sVek
p71
I4
sVej
p72
I2
sVee
p73
I11
sVed
p74
I20
sVeg
p75
I3
sVef
p76
I2
sVea
p77
I2
sVza
p78
I1
sVec
p79
I1
sVeb
p80
I5
sVah
p81
I23
sVey
p82
I86
sVex
p83
I3
sVez
p84
I2
sVeu
p85
I1
sVet
p86
I14
sVew
p87
I10
sVev
p88
I5
sVad
p89
I15
sVep
p90
I1
sVes
p91
I30
sVer
p92
I119
sVrt
p93
I51
sVru
p94
I1
sVrv
p95
I4
sVHy
p96
I1
sVrp
p97
I1
sVrr
p98
I2
sVrs
p99
I9
sVry
p100
I45
sVrd
p101
I71
sVre
p102
I26
sVrg
p103
I1
sVra
p104
I3
sVrb
p105
I1
sVrc
p106
I2
sVrl
p107
I5
sVrm
p108
I1
sVrn
p109
I10
sVro
p110
I14
sVri
p111
I14
sVrk
p112
I8
sVbe
p113
I7
sVwe
p114
I2
sVjy
p115
I1
sVbb
p116
I5
sVwn
p117
I2
sVbo
p118
I1
sVbi
p119
I2
sVsy
p120
I4
sVji
p121
I1
sVby
p122
I18
sVvy
p123
I6
sVon
p124
I161
sVom
p125
I8
sVol
p126
I4
sVok
p127
I2
sVoh
p128
I1
sVog
p129
I1
sVof
p130
I2
sVoe
p131
I6
sVla
p132
I1
sVob
p133
I6
sVds
p134
I2
sVoy
p135
I5
sVEz
p136
I1
sVow
p137
I4
sVov
p138
I3
sVou
p139
I3
sVot
p140
I8
sVos
p141
I18
sVll
p142
I53
sVop
p143
I3
sVck
p144
I42
sVBo
p145
I1
sVtu
p146
I1
sVco
p147
I11
sVce
p148
I50
sVxe
p149
I1
sVst
p150
I8
sVcy
p151
I7
sVzo
p152
I3
sVct
p153
I1
sVmy
p154
I12
sVpp
p155
I2
sVpy
p156
I2
sVlu
p157
I1
sVvi
p158
I3
sVph
p159
I8
sVis
p160
I41
sVhy
p161
I6
sVam
p162
I28
sVpe
p163
I6
sVnc
p164
I1
sVht
p165
I4
sVal
p166
I21
sVSi
p167
I1
sVhn
p168
I3
sVho
p169
I4
sVha
p170
I6
sVhe
p171
I8
sVme
p172
I10
sVuy
p173
I1
sVut
p174
I2
sVmo
p175
I7
sVas
p176
I35
sVus
p177
I64
sVur
p178
I4
sVum
p179
I2
sVul
p180
I8
sVCy
p181
I1
sVun
p182
I3
sVmp
p183
I1
sVms
p184
I1
sVEd
p185
I1
sVue
p186
I5
sVud
p187
I10
sVug
p188
I1
sVta
p189
I4
sVua
p190
I1
sVuc
p191
I1
sVzy
p192
I3
sVaa
p193
I1
sVix
p194
I2
sVac
p195
I2
sVod
p196
I17
sVae
p197
I1
sVve
p198
I8
sVag
p199
I2
sVTy
p200
I1
sVai
p201
I4
sVip
p202
I9
sVak
p203
I4
sVaj
p204
I1
sViz
p205
I1
sVit
p206
I10
sVao
p207
I1
sVan
p208
I103
sVay
p209
I17
sVik
p210
I6
sVar
p211
I25
sVau
p212
I2
sVil
p213
I24
sVaw
p214
I3
sVav
p215
I3
sVia
p216
I3
sVax
p217
I3
sVic
p218
I18
sVaz
p219
I1
sVie
p220
I150
sVid
p221
I10
sVig
p222
I10
sVif
p223
I1
sVni
p224
I5
sVub
p225
I1
sVin
p226
I100
sVno
p227
I12
sVna
p228
I2
sVyn
p229
I10
sVnd
p230
I36
sVne
p231
I53
sVng
p232
I13
sVny
p233
I26
sVnz
p234
I3
sVvo
p235
I1
sVns
p236
I10
sVnt
p237
I23
sVft
p238
I1
sVio
p239
I25
sVfy
p240
I5
sVox
p241
I2
sVfa
p242
I1
sVba
p243
I1
sVnk
p244
I3
sVfe
p245
I5
sVff
p246
I9
sVhu
p247
I3
sVab
p248
I3
sVky
p249
I12
sVfo
p250
I3
sVka
p251
I1
sVEv
p252
I1
sVim
p253
I16
sVnn
p254
I19
sVke
p255
I26
sVss
p256
I8
sVup
p257
I1
sVki
p258
I4
sVko
p259
I1
sVAl
p260
I1
sVor
p261
I26
sVks
p262
I2
sVsi
p263
I1
sVsh
p264
I12
sVso
p265
I3
sVat
p266
I6
sVsa
p267
I1
sVEr
p268
I1
sVse
p269
I15
stp270
Rp271
sS'_bins'
p272
I287
sS'_divisor'
p273
F3086.5
sbs(g8
S'length'
p274
tp275
g0
(g14
g2
Ntp276
Rp277
(dp278
g18
F0.5
sg19
I2943
sg20
g21
((dp279
I2
I11
sI3
I147
sI4
I390
sI5
I660
sI6
I791
sI7
I495
sI8
I296
sI9
I106
sI10
I33
sI11
I8
sI12
I4
sI13
I1
sI15
I1
stp280
Rp281
sg272
I14
sg273
F2950.0
sbs(g9
g274
tp282
g0
(g14
g2
Ntp283
Rp284
(dp285
g18
F0.5
sg19
I5001
sg20
g21
((dp286
I2
I8
sI3
I125
sI4
I536
sI5
I1218
sI6
I1258
sI7
I952
sI8
I550
sI9
I245
sI10
I83
sI11
I16
sI12
I6
sI13
I2
sI14
I1
sI15
I1
stp287
Rp288
sg272
I14
sg273
F5008.0
sbs(g8
S'suffix1'
p289
tp290
g0
(g14
g2
Ntp291
Rp292
(dp293
g18
F0.5
sg19
I2943
sg20
g21
((dp294
Va
p295
I29
sVc
p296
I25
sVb
p297
I21
sVe
p298
I468
sVd
p299
I228
sVg
p300
I32
sVf
p301
I25
sVi
p302
I50
sVh
p303
I93
sVk
p304
I69
sVj
p305
I3
sVm
p306
I70
sVl
p307
I187
sVo
p308
I165
sVn
p309
I478
sVp
p310
I18
sVs
p311
I230
sVr
p312
I190
sVu
p313
I12
sVt
p314
I164
sVw
p315
I17
sVv
p316
I16
sVy
p317
I332
sVx
p318
I10
sVz
p319
I11
stp320
Rp321
sg272
I26
sg273
F2956.0
sbs(g9
g12
tp322
g0
(g14
g2
Ntp323
Rp324
(dp325
g18
F0.5
sg19
I5001
sg20
g21
((dp326
Vgy
p327
I6
sVge
p328
I10
sVxi
p329
I4
sVga
p330
I6
sVgo
p331
I2
sVgi
p332
I7
sVgh
p333
I5
sVld
p334
I2
sVle
p335
I147
sVla
p336
I200
sVvy
p337
I5
sVlo
p338
I5
sVll
p339
I36
sVBo
p340
I1
sVli
p341
I36
sVJo
p342
I2
sVth
p343
I34
sVti
p344
I27
sVte
p345
I122
sVta
p346
I202
sVdo
p347
I1
sVym
p348
I1
sVyl
p349
I16
sVyn
p350
I77
sVya
p351
I29
sVde
p352
I38
sVye
p353
I20
sVda
p354
I136
sVdy
p355
I41
sVys
p356
I8
sVyt
p357
I1
sVem
p358
I1
sVel
p359
I70
sVeo
p360
I3
sVen
p361
I90
sVei
p362
I3
sVzi
p363
I3
sVee
p364
I106
sVze
p365
I3
sVeg
p366
I2
sVea
p367
I38
sVza
p368
I8
sVeb
p369
I1
sVah
p370
I59
sVey
p371
I101
sVex
p372
I1
sVim
p373
I2
sVez
p374
I1
sVet
p375
I22
sVew
p376
I2
sVev
p377
I1
sVad
p378
I6
sVes
p379
I8
sVer
p380
I26
sVrt
p381
I3
sVru
p382
I1
sVrr
p383
I1
sVry
p384
I47
sVrd
p385
I4
sVre
p386
I41
sVrg
p387
I4
sVra
p388
I163
sVrb
p389
I2
sVrl
p390
I5
sVrm
p391
I1
sVrn
p392
I1
sVro
p393
I3
sVri
p394
I46
sVrj
p395
I1
sVrk
p396
I1
sVbe
p397
I7
sVwe
p398
I1
sVba
p399
I10
sVwn
p400
I3
sVbi
p401
I16
sVe 
p402
I1
sVjo
p403
I3
sVji
p404
I1
sVbs
p405
I1
sVje
p406
I1
sVja
p407
I4
sVEm
p408
I1
sVon
p409
I28
sVol
p410
I5
sVok
p411
I1
sVoh
p412
I1
sVoe
p413
I4
sVty
p414
I34
sVoz
p415
I1
sVoy
p416
I1
sVow
p417
I3
sVou
p418
I2
sVot
p419
I5
sVos
p420
I1
sVtt
p421
I12
sVci
p422
I11
sVch
p423
I2
sVix
p424
I5
sVca
p425
I36
sVxa
p426
I1
sVce
p427
I55
sVcy
p428
I14
sVxy
p429
I3
sVeh
p430
I1
sVpp
p431
I1
sVor
p432
I9
sVpy
p433
I4
sVby
p434
I18
sVlu
p435
I1
sVvi
p436
I3
sVpi
p437
I1
sVoo
p438
I1
sVhy
p439
I6
sVan
p440
I57
sVKi
p441
I1
sVpe
p442
I4
sVka
p443
I39
sVit
p444
I12
sVhi
p445
I6
sVha
p446
I56
sVhe
p447
I22
sVme
p448
I7
sVma
p449
I27
sVux
p450
I3
sVmb
p451
I1
sVed
p452
I5
sVmi
p453
I19
sVus
p454
I3
sVur
p455
I2
sVum
p456
I1
sVul
p457
I1
sVun
p458
I4
sVui
p459
I2
sVAg
p460
I1
sVue
p461
I7
sVud
p462
I2
sVly
p463
I55
sVmy
p464
I16
sVzy
p465
I4
sViy
p466
I1
sVva
p467
I22
sVjy
p468
I1
sViz
p469
I2
sVae
p470
I7
sVve
p471
I7
sVag
p472
I1
sVaf
p473
I1
sVai
p474
I2
sVip
p475
I1
sVis
p476
I54
sVir
p477
I4
sVam
p478
I6
sVal
p479
I25
sViv
p480
I1
sVay
p481
I13
sVas
p482
I6
sVar
p483
I5
sVau
p484
I2
sVat
p485
I4
sVio
p486
I2
sVin
p487
I66
sVia
p488
I247
sVax
p489
I1
sVib
p490
I2
sVie
p491
I408
sVid
p492
I7
sVig
p493
I2
sVni
p494
I53
sVnk
p495
I1
sVnn
p496
I60
sVDi
p497
I1
sVil
p498
I21
sVpa
p499
I8
sVdi
p500
I37
sVnd
p501
I13
sVne
p502
I360
sVny
p503
I46
sVns
p504
I1
sVnt
p505
I8
sVyb
p506
I1
sVfy
p507
I4
sVfa
p508
I3
sVff
p509
I1
sVfi
p510
I5
sVab
p511
I2
sVsa
p512
I94
sVsy
p513
I31
sVLa
p514
I1
sVke
p515
I8
sVss
p516
I10
sVVi
p517
I1
sVki
p518
I14
sVko
p519
I9
sVst
p520
I1
sVks
p521
I1
sVsi
p522
I18
sVsh
p523
I3
sVso
p524
I1
sVna
p525
I443
sVky
p526
I10
sVse
p527
I47
stp528
Rp529
sg272
I287
sg273
F5144.5
sbs(g9
g289
tp530
g0
(g14
g2
Ntp531
Rp532
(dp533
g18
F0.5
sg19
I5001
sg20
g21
((dp534
g295
I1773
sV 
p535
I1
sg297
I9
sg298
I1432
sg299
I39
sg300
I10
sg301
I2
sg302
I317
sg303
I105
sg304
I3
sg305
I1
sg306
I13
sg307
I179
sg308
I33
sg309
I386
sg310
I2
sg311
I93
sg312
I47
sg313
I6
sg314
I68
sg315
I5
sg316
I2
sg317
I461
sg318
I10
sg319
I4
stp536
Rp537
sg272
I26
sg273
F5014.0
sbssS'_label_probdist'
p538
g0
(g14
g2
Ntp539
Rp540
(dp541
g18
F0.5
sg19
I7944
sg20
g21
((dp542
g8
I2943
sg9
I5001
stp543
Rp544
sg272
I2
sg273
F7945.0
sbsb.